target datalayout = "e-m:e-p270:32:32-p271:32:32-p272:64:64-i64:64-i128:128-f80:128-n8:16:32:64-S128"
target triple = "x86_64-pc-linux-gnu"

%struct.anon = type { [10 x [10 x ptr]], [10 x [10 x ptr]], [10 x [10 x ptr]], double, double, double, double, double, double, double, ptr, i32 }

; Function Attrs: nounwind uwtable
define internal i32 @myMonitorFunction(ptr noundef %0, ptr noundef %1) #0 {
  %3 = alloca ptr, align 8
  %4 = alloca ptr, align 8
  %5 = alloca ptr, align 8
  %6 = alloca double, align 8
  store ptr %0, ptr %3, align 8, !tbaa !15
  store ptr %1, ptr %4, align 8, !tbaa !15
  call void @llvm.lifetime.start.p0(i64 8, ptr %5) #7
  %7 = load ptr, ptr %4, align 8, !tbaa !15
  store ptr %7, ptr %5, align 8, !tbaa !15
  call void @llvm.lifetime.start.p0(i64 8, ptr %6) #7
  store double 0.000000e+00, ptr %6, align 8, !tbaa !26
  %8 = load ptr, ptr %3, align 8, !tbaa !15
  %9 = call i32 @CVodeGetCurrentTime(ptr noundef %8, ptr noundef %6)
  %10 = load ptr, ptr %3, align 8, !tbaa !15
  %11 = load ptr, ptr %5, align 8, !tbaa !15
  %12 = getelementptr inbounds nuw %struct.anon, ptr %11, i32 0, i32 10
  %13 = load ptr, ptr %12, align 8, !tbaa !38
  %14 = load double, ptr %6, align 8, !tbaa !26
  call void @PrintOutput(ptr noundef %10, ptr noundef %13, double noundef %14)
  %15 = load ptr, ptr %3, align 8, !tbaa !15
  %16 = load ptr, ptr %5, align 8, !tbaa !15
  %17 = getelementptr inbounds nuw %struct.anon, ptr %16, i32 0, i32 11
  %18 = load i32, ptr %17, align 8, !tbaa !29
  call void @PrintStats(ptr noundef %15, i32 noundef %18, i32 noundef 0)
  call void @llvm.lifetime.end.p0(i64 8, ptr %6) #7
  call void @llvm.lifetime.end.p0(i64 8, ptr %5) #7
  ret i32 0
}