; Function Attrs: nounwind uwtable
define internal noundef i32 @myMonitorFunction(ptr noundef %0, ptr noundef readonly captures(none) %1) #0 {
  %3 = alloca double, align 8
  call void @llvm.lifetime.start.p0(i64 8, ptr nonnull %3) #10
  store double 0.000000e+00, ptr %3, align 8, !tbaa !28
  %4 = call i32 @CVodeGetCurrentTime(ptr noundef %0, ptr noundef nonnull %3) #10
  %5 = getelementptr inbounds nuw i8, ptr %1, i64 2456
  %6 = load ptr, ptr %5, align 8, !tbaa !15
  %7 = load double, ptr %3, align 8, !tbaa !28
  call fastcc void @PrintOutput(ptr noundef %0, ptr noundef %6, double noundef %7)
  %8 = getelementptr inbounds nuw i8, ptr %1, i64 2464
  %9 = load i32, ptr %8, align 8, !tbaa !27
  call fastcc void @PrintStats(ptr noundef %0, i32 noundef %9, i32 noundef 0)
  call void @llvm.lifetime.end.p0(i64 8, ptr nonnull %3) #10
  ret i32 0
}